; Function Attrs: nounwind uwtable
define dso_local i32 @git_configset_get_string_multi(ptr noundef %0, ptr noundef %1, ptr noundef writeonly captures(none) %2) local_unnamed_addr #0 {
  %4 = alloca %struct.config_set_element, align 8
  %5 = alloca ptr, align 8
  call void @llvm.lifetime.start.p0(i64 64, ptr nonnull %4) #30
  call void @llvm.lifetime.start.p0(i64 8, ptr nonnull %5) #30
  %6 = call i32 @git_config_parse_key(ptr noundef %1, ptr noundef nonnull %5, ptr noundef null)
  %.not.i.i = icmp eq i32 %6, 0
  br i1 %.not.i.i, label %7, label %configset_find_element.exit.i

configset_find_element.exit.i:                    ; preds = %3
  call void @llvm.lifetime.end.p0(i64 8, ptr nonnull %5) #30
  call void @llvm.lifetime.end.p0(i64 64, ptr nonnull %4) #30
  br label %git_configset_get_value_multi.exit.thread

7:                                                ; preds = %3
  %8 = load ptr, ptr %5, align 8, !tbaa !17
  %9 = tail call i32 @strhash(ptr noundef %8) #30
  %10 = getelementptr inbounds nuw i8, ptr %4, i64 8
  store i32 %9, ptr %10, align 8, !tbaa !114
  store ptr null, ptr %4, align 8, !tbaa !115
  %11 = getelementptr inbounds nuw i8, ptr %4, i64 16
  store ptr %8, ptr %11, align 8, !tbaa !108
  %12 = call ptr @hashmap_get(ptr noundef %0, ptr noundef nonnull %4, ptr noundef null) #30
  call void @free(ptr noundef %8) #30
  call void @llvm.lifetime.end.p0(i64 8, ptr nonnull %5) #30
  call void @llvm.lifetime.end.p0(i64 64, ptr nonnull %4) #30
  %.not6.i = icmp eq ptr %12, null
  br i1 %.not6.i, label %git_configset_get_value_multi.exit.thread, label %13

13:                                               ; preds = %7
  %14 = getelementptr inbounds nuw i8, ptr %12, i64 24
  store ptr %14, ptr %2, align 8, !tbaa !125
  %15 = call i32 @for_each_string_list(ptr noundef nonnull %14, ptr noundef nonnull @check_multi_string, ptr noundef %1) #30
  br label %git_configset_get_value_multi.exit.thread

git_configset_get_value_multi.exit.thread:        ; preds = %7, %configset_find_element.exit.i, %13
  %.0 = phi i32 [ %15, %13 ], [ 1, %7 ], [ %6, %configset_find_element.exit.i ]
  ret i32 %.0
}